(dp0
S'model'
p1
(dp2
S'signals'
p3
(dp4
L1L
(dp5
S'instruments'
p6
(dp7
L1L
(dp8
S'geom'
p9
cnumpy.core.multiarray
_reconstruct
p10
(cnumpy
ndarray
p11
(I0
tp12
S'b'
p13
tp14
Rp15
(I1
(I3
tp16
cnumpy
dtype
p17
(S'i8'
p18
I0
I1
tp19
Rp20
(I3
S'<'
p21
NNNI-1
I-1
I0
tp22
bI00
S'\x00\x00\x00\x00\x00\x00\x00\x00\x00\x00\x00\x00\x00\x00\x00\x00\x00\x00\x00\x00\x00\x00\x00\x00'
p23
tp24
bsS'abv'
p25
S'f1'
p26
sssS'indVars'
p27
g10
(g11
(I0
tp28
g13
tp29
Rp30
(I1
(I1
tp31
g17
(S'i8'
p32
I0
I1
tp33
Rp34
(I3
S'<'
p35
NNNI-1
I-1
I0
tp36
bI00
S'\x00\x00\x00\x00\x00\x00\x00\x00'
p37
tp38
bsssS'misc'
p39
(dp40
S'stepMod'
p41
F1.0
ssS'estimates'
p42
(dp43
L20040L
(dp44
S'domain'
p45
S'Domain'
p46
sg9
g10
(g11
(I0
tp47
g13
tp48
Rp49
(I1
(I3
tp50
g17
(S'f8'
p51
I0
I1
tp52
Rp53
(I3
S'<'
p54
NNNI-1
I-1
I0
tp55
bI00
S'N\x97<\xe1c\x12\x9c@\x92\xcb\xc7Uc\x89\x91@\xd4\xb4\xed\x15\x87Od@'
p56
tp57
bsS'value'
p58
F2.48759
sg25
S'x02'
p59
ssL20039L
(dp60
g45
g46
sg9
g49
sg58
F1.57406
sg25
S'x01'
p61
ssss.