(dp0
S'output'
p1
(dp2
L1L
cnumpy.core.multiarray
_reconstruct
p3
(cnumpy
ndarray
p4
(I0
tp5
S'b'
p6
tp7
Rp8
(I1
(I1
tp9
cnumpy
dtype
p10
(S'f8'
p11
I0
I1
tp12
Rp13
(I3
S'<'
p14
NNNI-1
I-1
I0
tp15
bI00
S'0Nr\xa5\xa8\xb8\xd5?'
p16
tp17
bssS'times'
p18
(lp19
cdatetime
datetime
p20
(S'\x07\xe3\x05\x07\x01":\x0e\xf4\xd3'
p21
tp22
Rp23
ag20
(S'\x07\xe3\x05\x07\x01":\x0e\xf7('
p24
tp25
Rp26
as.