(dp0
S'model'
p1
(dp2
S'signals'
p3
(dp4
L1L
(dp5
S'instruments'
p6
(dp7
L1L
(dp8
S'geom'
p9
cnumpy.core.multiarray
_reconstruct
p10
(cnumpy
ndarray
p11
(I0
tp12
S'b'
p13
tp14
Rp15
(I1
(I3
tp16
cnumpy
dtype
p17
(S'i8'
p18
I0
I1
tp19
Rp20
(I3
S'<'
p21
NNNI-1
I-1
I0
tp22
bI00
S'\x00\x00\x00\x00\x00\x00\x00\x00\x00\x00\x00\x00\x00\x00\x00\x00\x00\x00\x00\x00\x00\x00\x00\x00'
p23
tp24
bsS'abv'
p25
S'f1'
p26
sssS'indVars'
p27
g10
(g11
(I0
tp28
g13
tp29
Rp30
(I1
(I1
tp31
g17
(S'i8'
p32
I0
I1
tp33
Rp34
(I3
S'<'
p35
NNNI-1
I-1
I0
tp36
bI00
S'\x00\x00\x00\x00\x00\x00\x00\x00'
p37
tp38
bsssS'misc'
p39
NsS'estimates'
p40
(dp41
L10000L
(dp42
S'domain'
p43
S'Domain'
p44
sg9
g10
(g11
(I0
tp45
g13
tp46
Rp47
(I1
(I3
tp48
g17
(S'f8'
p49
I0
I1
tp50
Rp51
(I3
S'<'
p52
NNNI-1
I-1
I0
tp53
bI00
S'\x88\xdf\x9a\x9f\x11\xd7\x8e@\xf1\x80\xdds\xe6\xa5\x86@H\x03\x82"\xf7<6\xc0'
p54
tp55
bsS'value'
p56
F0.779276
sg25
S'x02'
p57
ssL9999L
(dp58
g43
g44
sg9
g47
sg56
F0.176218
sg25
S'x01'
p59
ssss.